target datalayout = "e-m:e-p270:32:32-p271:32:32-p272:64:64-i64:64-i128:128-f80:128-n8:16:32:64-S128"
target triple = "x86_64-pc-linux-gnu"

%"class.facebook::yoga::Node" = type { i8, ptr, ptr, ptr, ptr, %"class.facebook::yoga::Style", %"struct.facebook::yoga::LayoutResults", i64, i64, ptr, %"class.std::vector", ptr, %"struct.std::array.8" }
%"class.facebook::yoga::Style" = type { i32, %"class.facebook::yoga::StyleValueHandle", %"class.facebook::yoga::StyleValueHandle", %"class.facebook::yoga::StyleValueHandle", %"class.facebook::yoga::StyleValueHandle", %"struct.std::array", %"struct.std::array", %"struct.std::array", %"struct.std::array", %"struct.std::array.0", %"struct.std::array.1", %"struct.std::array.1", %"struct.std::array.1", %"class.facebook::yoga::StyleValueHandle", %"class.facebook::yoga::StyleValuePool" }
%"struct.std::array" = type { [9 x %"class.facebook::yoga::StyleValueHandle"] }
%"struct.std::array.0" = type { [3 x %"class.facebook::yoga::StyleValueHandle"] }
%"struct.std::array.1" = type { [2 x %"class.facebook::yoga::StyleValueHandle"] }
%"class.facebook::yoga::StyleValueHandle" = type { i16 }
%"class.facebook::yoga::StyleValuePool" = type { %"class.facebook::yoga::SmallValueBuffer" }
%"class.facebook::yoga::SmallValueBuffer" = type { i16, %"struct.std::array.2", %"class.std::bitset", %"class.std::unique_ptr" }
%"struct.std::array.2" = type { [4 x i32] }
%"class.std::bitset" = type { %"struct.std::_Base_bitset" }
%"struct.std::_Base_bitset" = type { i64 }
%"class.std::unique_ptr" = type { %"struct.std::__uniq_ptr_data" }
%"struct.std::__uniq_ptr_data" = type { %"class.std::__uniq_ptr_impl" }
%"class.std::__uniq_ptr_impl" = type { %"class.std::tuple" }
%"class.std::tuple" = type { %"struct.std::_Tuple_impl" }
%"struct.std::_Tuple_impl" = type { %"struct.std::_Head_base.4" }
%"struct.std::_Head_base.4" = type { ptr }
%"struct.facebook::yoga::LayoutResults" = type { i32, %"struct.facebook::yoga::FloatOptional", i32, i32, i8, i32, %"struct.std::array.5", %"struct.facebook::yoga::CachedMeasurement", i8, %"struct.std::array.6", %"struct.std::array.6", %"struct.std::array.7", %"struct.std::array.7", %"struct.std::array.7", %"struct.std::array.7" }
%"struct.facebook::yoga::FloatOptional" = type { float }
%"struct.std::array.5" = type { [8 x %"struct.facebook::yoga::CachedMeasurement"] }
%"struct.facebook::yoga::CachedMeasurement" = type { float, float, i32, i32, float, float }
%"struct.std::array.6" = type { [2 x float] }
%"struct.std::array.7" = type { [4 x float] }
%"class.std::vector" = type { %"struct.std::_Vector_base" }
%"struct.std::_Vector_base" = type { %"struct.std::_Vector_base<facebook::yoga::Node *, std::allocator<facebook::yoga::Node *>>::_Vector_impl" }
%"struct.std::_Vector_base<facebook::yoga::Node *, std::allocator<facebook::yoga::Node *>>::_Vector_impl" = type { %"struct.std::_Vector_base<facebook::yoga::Node *, std::allocator<facebook::yoga::Node *>>::_Vector_impl_data" }
%"struct.std::_Vector_base<facebook::yoga::Node *, std::allocator<facebook::yoga::Node *>>::_Vector_impl_data" = type { ptr, ptr, ptr }
%"struct.std::array.8" = type { [2 x %"class.facebook::yoga::StyleSizeLength"] }
%"class.facebook::yoga::StyleSizeLength" = type <{ %"struct.facebook::yoga::FloatOptional", i8, [3 x i8] }>

@.str.7 = private unnamed_addr constant [22 x i8] c"Invalid FlexDirection\00", align 1

; Function Attrs: mustprogress nounwind uwtable
define linkonce_odr noundef nonnull align 4 dereferenceable(4) ptr @_ZNSt14__array_traitsIfLm2EE6_S_refERA2_Kfm(ptr noundef nonnull align 4 dereferenceable(8) %0, i64 noundef %1) #7 comdat align 2 {
  %3 = alloca ptr, align 8
  %4 = alloca i64, align 8
  store ptr %0, ptr %3, align 8, !tbaa !235
  store i64 %1, ptr %4, align 8, !tbaa !108
  %5 = load ptr, ptr %3, align 8, !tbaa !235
  %6 = load i64, ptr %4, align 8, !tbaa !108
  %7 = getelementptr inbounds nuw [2 x float], ptr %5, i64 0, i64 %6
  ret ptr %7
}

; Function Attrs: mustprogress nounwind uwtable
define linkonce_odr noundef nonnull align 4 dereferenceable(4) ptr @_ZNKSt5arrayIfLm2EEixEm(ptr noundef nonnull align 4 dereferenceable(8) %0, i64 noundef %1) #7 comdat align 2 {
  %3 = alloca ptr, align 8
  %4 = alloca i64, align 8
  store ptr %0, ptr %3, align 8, !tbaa !237
  store i64 %1, ptr %4, align 8, !tbaa !108
  %5 = load ptr, ptr %3, align 8
  %6 = getelementptr inbounds nuw %"struct.std::array.6", ptr %5, i32 0, i32 0
  %7 = load i64, ptr %4, align 8, !tbaa !108
  %8 = call noundef nonnull align 4 dereferenceable(4) ptr @_ZNSt14__array_traitsIfLm2EE6_S_refERA2_Kfm(ptr noundef nonnull align 4 dereferenceable(8) %6, i64 noundef %7) #3
  ret ptr %8
}

; Function Attrs: mustprogress nounwind uwtable
define linkonce_odr hidden noundef zeroext i8 @_ZN8facebook4yoga13to_underlyingITkNS0_11EnumerationENS0_9DimensionEEEDaT_(i8 noundef zeroext %0) #7 comdat {
  %2 = alloca i8, align 1
  store i8 %0, ptr %2, align 1, !tbaa !104
  %3 = load i8, ptr %2, align 1, !tbaa !104
  ret i8 %3
}

; Function Attrs: mustprogress nounwind uwtable
define linkonce_odr hidden noundef float @_ZNK8facebook4yoga13LayoutResults17measuredDimensionENS0_9DimensionE(ptr noundef nonnull align 4 dereferenceable(324) %0, i8 noundef zeroext %1) #7 comdat align 2 {
  %3 = alloca ptr, align 8
  %4 = alloca i8, align 1
  store ptr %0, ptr %3, align 8, !tbaa !68
  store i8 %1, ptr %4, align 1, !tbaa !104
  %5 = load ptr, ptr %3, align 8
  %6 = getelementptr inbounds nuw %"struct.facebook::yoga::LayoutResults", ptr %5, i32 0, i32 10
  %7 = load i8, ptr %4, align 1, !tbaa !104
  %8 = call noundef zeroext i8 @_ZN8facebook4yoga13to_underlyingITkNS0_11EnumerationENS0_9DimensionEEEDaT_(i8 noundef zeroext %7) #3
  %9 = zext i8 %8 to i64
  %10 = call noundef nonnull align 4 dereferenceable(4) ptr @_ZNKSt5arrayIfLm2EEixEm(ptr noundef nonnull align 4 dereferenceable(8) %6, i64 noundef %9) #3
  %11 = load float, ptr %10, align 4, !tbaa !81
  ret float %11
}

; Function Attrs: inlinehint mustprogress uwtable
define linkonce_odr hidden noundef zeroext i8 @_ZN8facebook4yoga9dimensionENS0_13FlexDirectionE(i8 noundef zeroext %0) #5 comdat {
  %2 = alloca i8, align 1
  %3 = alloca i8, align 1
  store i8 %0, ptr %3, align 1, !tbaa !103
  %4 = load i8, ptr %3, align 1, !tbaa !103
  switch i8 %4, label %9 [
    i8 0, label %5
    i8 1, label %6
    i8 2, label %7
    i8 3, label %8
  ]

5:                                                ; preds = %1
  store i8 1, ptr %2, align 1
  br label %10

6:                                                ; preds = %1
  store i8 1, ptr %2, align 1
  br label %10

7:                                                ; preds = %1
  store i8 0, ptr %2, align 1
  br label %10

8:                                                ; preds = %1
  store i8 0, ptr %2, align 1
  br label %10

9:                                                ; preds = %1
  call void @_ZN8facebook4yoga16fatalWithMessageEPKc(ptr noundef @.str.7) #21
  unreachable

10:                                               ; preds = %8, %7, %6, %5
  %11 = load i8, ptr %2, align 1
  ret i8 %11
}

; Function Attrs: mustprogress nounwind uwtable
define linkonce_odr noundef nonnull align 4 dereferenceable(324) ptr @_ZN8facebook4yoga4Node9getLayoutEv(ptr noundef nonnull align 8 dereferenceable(584) %0) #7 comdat align 2 {
  %2 = alloca ptr, align 8
  store ptr %0, ptr %2, align 8, !tbaa !4
  %3 = load ptr, ptr %2, align 8
  %4 = getelementptr inbounds nuw %"class.facebook::yoga::Node", ptr %3, i32 0, i32 6
  ret ptr %4
}

; Function Attrs: mustprogress uwtable
define noundef float @_ZN8facebook4yoga4Node19dimensionWithMarginENS0_13FlexDirectionEf(ptr noundef nonnull align 8 dereferenceable(584) %0, i8 noundef zeroext %1, float noundef %2) #4 align 2 {
  %4 = alloca ptr, align 8
  %5 = alloca i8, align 1
  %6 = alloca float, align 4
  store ptr %0, ptr %4, align 8, !tbaa !4
  store i8 %1, ptr %5, align 1, !tbaa !103
  store float %2, ptr %6, align 4, !tbaa !81
  %7 = load ptr, ptr %4, align 8
  %8 = call noundef nonnull align 4 dereferenceable(324) ptr @_ZN8facebook4yoga4Node9getLayoutEv(ptr noundef nonnull align 8 dereferenceable(584) %7)
  %9 = load i8, ptr %5, align 1, !tbaa !103
  %10 = call noundef zeroext i8 @_ZN8facebook4yoga9dimensionENS0_13FlexDirectionE(i8 noundef zeroext %9)
  %11 = call noundef float @_ZNK8facebook4yoga13LayoutResults17measuredDimensionENS0_9DimensionE(ptr noundef nonnull align 4 dereferenceable(324) %8, i8 noundef zeroext %10)
  %12 = getelementptr inbounds nuw %"class.facebook::yoga::Node", ptr %7, i32 0, i32 5
  %13 = load i8, ptr %5, align 1, !tbaa !103
  %14 = load float, ptr %6, align 4, !tbaa !81
  %15 = call noundef float @_ZNK8facebook4yoga5Style20computeMarginForAxisENS0_13FlexDirectionEf(ptr noundef nonnull align 8 dereferenceable(144) %12, i8 noundef zeroext %13, float noundef %14)
  %16 = fadd float %11, %15
  ret float %16
}