; Function Attrs: mustprogress uwtable
define noundef float @_ZN8facebook4yoga4Node19dimensionWithMarginENS0_13FlexDirectionEf(ptr noundef nonnull align 8 dereferenceable(584) %0, i8 noundef zeroext %1, float noundef %2) local_unnamed_addr #3 align 2 {
  %4 = icmp ult i8 %1, 4
  br i1 %4, label %switch.lookup, label %5

5:                                                ; preds = %3
  tail call void @_ZN8facebook4yoga16fatalWithMessageEPKc(ptr noundef nonnull @.str.7) #27
  unreachable

switch.lookup:                                    ; preds = %3
  %6 = zext nneg i8 %1 to i64
  %switch.gep = getelementptr inbounds nuw [4 x i64], ptr @switch.table._ZN8facebook4yoga4Node24isLayoutDimensionDefinedENS0_13FlexDirectionE, i64 0, i64 %6
  %switch.load = load i64, ptr %switch.gep, align 8
  %7 = getelementptr inbounds nuw i8, ptr %0, i64 436
  %8 = getelementptr inbounds nuw [2 x float], ptr %7, i64 0, i64 %switch.load
  %9 = load float, ptr %8, align 4, !tbaa !20
  %10 = getelementptr inbounds nuw i8, ptr %0, i64 40
  %11 = tail call noundef float @_ZNK8facebook4yoga5Style20computeMarginForAxisENS0_13FlexDirectionEf(ptr noundef nonnull align 8 dereferenceable(144) %10, i8 noundef zeroext %1, float noundef %2)
  %12 = fadd float %9, %11
  ret float %12
}